target datalayout = "e-m:e-p270:32:32-p271:32:32-p272:64:64-i64:64-i128:128-f80:128-n8:16:32:64-S128"
target triple = "x86_64-pc-linux-gnu"

@exit_code = dso_local global i32 0, align 4
@stderr = external global ptr, align 8
@.str.155 = private unnamed_addr constant [10 x i8] c"lifespan=\00", align 1
@.str.156 = private unnamed_addr constant [9 x i8] c"infinite\00", align 1
@.str.157 = private unnamed_addr constant [10 x i8] c"unlimited\00", align 1
@.str.158 = private unnamed_addr constant [9 x i8] c"lifespan\00", align 1
@.str.159 = private unnamed_addr constant [10 x i8] c"username=\00", align 1
@.str.160 = private unnamed_addr constant [22 x i8] c"Invalid option: `%s`\0A\00", align 1
@.str.161 = private unnamed_addr constant [14 x i8] c"SLURM_JWT=%s\0A\00", align 1

; Function Attrs: nounwind uwtable
define internal void @_fetch_token(i32 noundef %0, ptr noundef %1) #0 {
  %3 = alloca i32, align 4
  %4 = alloca ptr, align 8
  %5 = alloca ptr, align 8
  %6 = alloca ptr, align 8
  %7 = alloca i32, align 4
  %8 = alloca i32, align 4
  %9 = alloca i32, align 4
  %10 = alloca ptr, align 8
  store i32 %0, ptr %3, align 4
  store ptr %1, ptr %4, align 8
  call void @llvm.lifetime.start.p0(i64 8, ptr %5) #12
  store ptr null, ptr %5, align 8
  call void @llvm.lifetime.start.p0(i64 8, ptr %6) #12
  call void @llvm.lifetime.start.p0(i64 4, ptr %7) #12
  store i32 0, ptr %7, align 4
  call void @llvm.lifetime.start.p0(i64 4, ptr %8) #12
  store i32 1, ptr %8, align 4
  br label %11

11:                                               ; preds = %68, %2
  %12 = load i32, ptr %8, align 4
  %13 = load i32, ptr %3, align 4
  %14 = icmp slt i32 %12, %13
  br i1 %14, label %16, label %15

15:                                               ; preds = %11
  store i32 2, ptr %9, align 4
  br label %71

16:                                               ; preds = %11
  %17 = load ptr, ptr %4, align 8
  %18 = load i32, ptr %8, align 4
  %19 = sext i32 %18 to i64
  %20 = getelementptr inbounds ptr, ptr %17, i64 %19
  %21 = load ptr, ptr %20, align 8
  %22 = call i32 @xstrncasecmp(ptr noundef @.str.155, ptr noundef %21, i64 noundef 9)
  %23 = icmp ne i32 %22, 0
  br i1 %23, label %43, label %24

24:                                               ; preds = %16
  call void @llvm.lifetime.start.p0(i64 8, ptr %10) #12
  %25 = load ptr, ptr %4, align 8
  %26 = load i32, ptr %8, align 4
  %27 = sext i32 %26 to i64
  %28 = getelementptr inbounds ptr, ptr %25, i64 %27
  %29 = load ptr, ptr %28, align 8
  %30 = getelementptr inbounds i8, ptr %29, i64 9
  store ptr %30, ptr %10, align 8
  %31 = load ptr, ptr %10, align 8
  %32 = call i32 @xstrcasecmp(ptr noundef @.str.156, ptr noundef %31)
  %33 = icmp ne i32 %32, 0
  br i1 %33, label %34, label %38

34:                                               ; preds = %24
  %35 = load ptr, ptr %10, align 8
  %36 = call i32 @xstrcasecmp(ptr noundef @.str.157, ptr noundef %35)
  %37 = icmp ne i32 %36, 0
  br i1 %37, label %39, label %38

38:                                               ; preds = %34, %24
  store i32 2147483646, ptr %7, align 4
  br label %42

39:                                               ; preds = %34
  %40 = load ptr, ptr %10, align 8
  %41 = call i32 @parse_int(ptr noundef @.str.158, ptr noundef %40, i1 noundef zeroext true)
  store i32 %41, ptr %7, align 4
  br label %42

42:                                               ; preds = %39, %38
  call void @llvm.lifetime.end.p0(i64 8, ptr %10) #12
  br label %67

43:                                               ; preds = %16
  %44 = load ptr, ptr %4, align 8
  %45 = load i32, ptr %8, align 4
  %46 = sext i32 %45 to i64
  %47 = getelementptr inbounds ptr, ptr %44, i64 %46
  %48 = load ptr, ptr %47, align 8
  %49 = call i32 @xstrncasecmp(ptr noundef @.str.159, ptr noundef %48, i64 noundef 9)
  %50 = icmp ne i32 %49, 0
  br i1 %50, label %58, label %51

51:                                               ; preds = %43
  %52 = load ptr, ptr %4, align 8
  %53 = load i32, ptr %8, align 4
  %54 = sext i32 %53 to i64
  %55 = getelementptr inbounds ptr, ptr %52, i64 %54
  %56 = load ptr, ptr %55, align 8
  %57 = getelementptr inbounds i8, ptr %56, i64 9
  store ptr %57, ptr %5, align 8
  br label %66

58:                                               ; preds = %43
  %59 = load ptr, ptr @stderr, align 8
  %60 = load ptr, ptr %4, align 8
  %61 = load i32, ptr %8, align 4
  %62 = sext i32 %61 to i64
  %63 = getelementptr inbounds ptr, ptr %60, i64 %62
  %64 = load ptr, ptr %63, align 8
  %65 = call i32 (ptr, ptr, ...) @fprintf(ptr noundef %59, ptr noundef @.str.160, ptr noundef %64) #12
  store i32 1, ptr @exit_code, align 4
  store i32 1, ptr %9, align 4
  br label %71

66:                                               ; preds = %51
  br label %67

67:                                               ; preds = %66, %42
  br label %68

68:                                               ; preds = %67
  %69 = load i32, ptr %8, align 4
  %70 = add nsw i32 %69, 1
  store i32 %70, ptr %8, align 4
  br label %11, !llvm.loop !28

71:                                               ; preds = %58, %15
  call void @llvm.lifetime.end.p0(i64 4, ptr %8) #12
  %72 = load i32, ptr %9, align 4
  switch i32 %72, label %82 [
    i32 2, label %73
  ]

73:                                               ; preds = %71
  %74 = load ptr, ptr %5, align 8
  %75 = load i32, ptr %7, align 4
  %76 = call ptr @slurm_fetch_token(ptr noundef %74, i32 noundef %75)
  store ptr %76, ptr %6, align 8
  %77 = icmp ne ptr %76, null
  br i1 %77, label %79, label %78

78:                                               ; preds = %73
  store i32 1, ptr @exit_code, align 4
  store i32 1, ptr %9, align 4
  br label %82

79:                                               ; preds = %73
  %80 = load ptr, ptr %6, align 8
  %81 = call i32 (ptr, ...) @printf(ptr noundef @.str.161, ptr noundef %80)
  call void @slurm_xfree(ptr noundef %6)
  store i32 0, ptr %9, align 4
  br label %82

82:                                               ; preds = %79, %78, %71
  call void @llvm.lifetime.end.p0(i64 4, ptr %7) #12
  call void @llvm.lifetime.end.p0(i64 8, ptr %6) #12
  call void @llvm.lifetime.end.p0(i64 8, ptr %5) #12
  %83 = load i32, ptr %9, align 4
  switch i32 %83, label %85 [
    i32 0, label %84
    i32 1, label %84
  ]

84:                                               ; preds = %82, %82
  ret void

85:                                               ; preds = %82
  unreachable
}