; Function Attrs: nounwind uwtable
define internal fastcc void @_fetch_token(i32 noundef range(i32 1, -2147483648) %0, ptr noundef readonly captures(none) %1) unnamed_addr #8 {
  %3 = alloca ptr, align 8
  call void @llvm.lifetime.start.p0(i64 8, ptr nonnull %3) #18
  %.not2630 = icmp samesign ugt i32 %0, 1
  br i1 %.not2630, label %.lr.ph.preheader, label %.critedge

.lr.ph.preheader:                                 ; preds = %2
  %wide.trip.count = zext nneg i32 %0 to i64
  br label %.lr.ph

.lr.ph:                                           ; preds = %.lr.ph.preheader, %24
  %indvars.iv = phi i64 [ 1, %.lr.ph.preheader ], [ %indvars.iv.next, %24 ]
  %.033 = phi ptr [ null, %.lr.ph.preheader ], [ %.1, %24 ]
  %.02031 = phi i32 [ 0, %.lr.ph.preheader ], [ %.2, %24 ]
  %4 = getelementptr inbounds nuw ptr, ptr %1, i64 %indvars.iv
  %5 = load ptr, ptr %4, align 8
  %6 = tail call i32 @xstrncasecmp(ptr noundef nonnull @.str.155, ptr noundef %5, i64 noundef 9) #18
  %.not = icmp eq i32 %6, 0
  %7 = load ptr, ptr %4, align 8
  br i1 %.not, label %8, label %15

8:                                                ; preds = %.lr.ph
  %9 = getelementptr inbounds nuw i8, ptr %7, i64 9
  %10 = tail call i32 @xstrcasecmp(ptr noundef nonnull @.str.156, ptr noundef nonnull %9) #18
  %.not23 = icmp eq i32 %10, 0
  br i1 %.not23, label %24, label %11

11:                                               ; preds = %8
  %12 = tail call i32 @xstrcasecmp(ptr noundef nonnull @.str.157, ptr noundef nonnull %9) #18
  %.not24 = icmp eq i32 %12, 0
  br i1 %.not24, label %24, label %13

13:                                               ; preds = %11
  %14 = tail call i32 @parse_int(ptr noundef nonnull @.str.158, ptr noundef nonnull %9, i1 noundef zeroext true) #18
  br label %24

15:                                               ; preds = %.lr.ph
  %16 = tail call i32 @xstrncasecmp(ptr noundef nonnull @.str.159, ptr noundef %7, i64 noundef 9) #18
  %.not25 = icmp eq i32 %16, 0
  br i1 %.not25, label %17, label %20

17:                                               ; preds = %15
  %18 = load ptr, ptr %4, align 8
  %19 = getelementptr inbounds nuw i8, ptr %18, i64 9
  br label %24

20:                                               ; preds = %15
  %21 = load ptr, ptr @stderr, align 8
  %22 = load ptr, ptr %4, align 8
  %23 = tail call i32 (ptr, ptr, ...) @fprintf(ptr noundef %21, ptr noundef nonnull @.str.160, ptr noundef %22) #22
  store i32 1, ptr @exit_code, align 4
  br label %29

24:                                               ; preds = %13, %11, %8, %17
  %.2 = phi i32 [ %.02031, %17 ], [ %14, %13 ], [ 2147483646, %11 ], [ 2147483646, %8 ]
  %.1 = phi ptr [ %19, %17 ], [ %.033, %13 ], [ %.033, %11 ], [ %.033, %8 ]
  %indvars.iv.next = add nuw nsw i64 %indvars.iv, 1
  %exitcond.not = icmp eq i64 %indvars.iv.next, %wide.trip.count
  br i1 %exitcond.not, label %.critedge, label %.lr.ph, !llvm.loop !27

.critedge:                                        ; preds = %24, %2
  %.020.lcssa = phi i32 [ 0, %2 ], [ %.2, %24 ]
  %.0.lcssa = phi ptr [ null, %2 ], [ %.1, %24 ]
  %25 = tail call ptr @slurm_fetch_token(ptr noundef %.0.lcssa, i32 noundef %.020.lcssa) #18
  store ptr %25, ptr %3, align 8
  %.not27 = icmp eq ptr %25, null
  br i1 %.not27, label %26, label %27

26:                                               ; preds = %.critedge
  store i32 1, ptr @exit_code, align 4
  br label %29

27:                                               ; preds = %.critedge
  %28 = tail call i32 (ptr, ...) @printf(ptr noundef nonnull dereferenceable(1) @.str.161, ptr noundef nonnull %25)
  call void @slurm_xfree(ptr noundef nonnull %3) #18
  br label %29

29:                                               ; preds = %20, %27, %26
  call void @llvm.lifetime.end.p0(i64 8, ptr nonnull %3) #18
  ret void
}